target datalayout = "e-m:e-p270:32:32-p271:32:32-p272:64:64-i64:64-i128:128-f80:128-n8:16:32:64-S128"
target triple = "x86_64-pc-linux-gnu"

@testctx = internal global ptr null, align 8
@testpropq = internal global ptr null, align 8
@.str.281 = private unnamed_addr constant [4 x i8] c"DER\00", align 1
@.str.290 = private unnamed_addr constant [2 x i8] c"1\00", align 1
@.str.298 = private unnamed_addr constant [2 x i8] c"0\00", align 1
@.str.306 = private unnamed_addr constant [4 x i8] c"PEM\00", align 1
@.str.307 = private unnamed_addr constant [52 x i8] c"encoded_bio = BIO_new_mem_buf(encoded, encoded_len)\00", align 1
@.str.308 = private unnamed_addr constant [114 x i8] c"dctx = OSSL_DECODER_CTX_new_for_pkey(&testpkey, testtype, structure_type, keytype, selection, testctx, testpropq)\00", align 1
@.str.309 = private unnamed_addr constant [23 x i8] c"BIO_reset(encoded_bio)\00", align 1
@.str.310 = private unnamed_addr constant [41 x i8] c"OSSL_DECODER_from_bio(dctx, encoded_bio)\00", align 1
@.str.311 = private unnamed_addr constant [17 x i8] c"(i == 2) ? 0 : 1\00", align 1
@.str.312 = private unnamed_addr constant [39 x i8] c"EVP_PKEY_parameters_eq(pkey, testpkey)\00", align 1
@.str.313 = private unnamed_addr constant [28 x i8] c"EVP_PKEY_eq(pkey, testpkey)\00", align 1

; Function Attrs: nounwind uwtable
define internal i32 @decode_EVP_PKEY_prov(ptr noundef %0, i32 noundef %1, ptr noundef %2, ptr noundef %3, i64 noundef %4, ptr noundef %5, ptr noundef %6, ptr noundef %7, i32 noundef %8, ptr noundef %9) #0 {
  %11 = alloca i32, align 4
  %12 = alloca ptr, align 8
  %13 = alloca i32, align 4
  %14 = alloca ptr, align 8
  %15 = alloca ptr, align 8
  %16 = alloca i64, align 8
  %17 = alloca ptr, align 8
  %18 = alloca ptr, align 8
  %19 = alloca ptr, align 8
  %20 = alloca i32, align 4
  %21 = alloca ptr, align 8
  %22 = alloca ptr, align 8
  %23 = alloca ptr, align 8
  %24 = alloca ptr, align 8
  %25 = alloca ptr, align 8
  %26 = alloca ptr, align 8
  %27 = alloca i32, align 4
  %28 = alloca i32, align 4
  %29 = alloca ptr, align 8
  %30 = alloca ptr, align 8
  %31 = alloca i32, align 4
  store ptr %0, ptr %12, align 8, !tbaa !4
  store i32 %1, ptr %13, align 4, !tbaa !9
  store ptr %2, ptr %14, align 8, !tbaa !31
  store ptr %3, ptr %15, align 8, !tbaa !31
  store i64 %4, ptr %16, align 8, !tbaa !27
  store ptr %5, ptr %17, align 8, !tbaa !4
  store ptr %6, ptr %18, align 8, !tbaa !4
  store ptr %7, ptr %19, align 8, !tbaa !4
  store i32 %8, ptr %20, align 4, !tbaa !9
  store ptr %9, ptr %21, align 8, !tbaa !4
  call void @llvm.lifetime.start.p0(i64 8, ptr %22) #7
  store ptr null, ptr %22, align 8, !tbaa !23
  call void @llvm.lifetime.start.p0(i64 8, ptr %23) #7
  store ptr null, ptr %23, align 8, !tbaa !23
  call void @llvm.lifetime.start.p0(i64 8, ptr %24) #7
  store ptr null, ptr %24, align 8, !tbaa !43
  call void @llvm.lifetime.start.p0(i64 8, ptr %25) #7
  store ptr null, ptr %25, align 8, !tbaa !36
  call void @llvm.lifetime.start.p0(i64 8, ptr %26) #7
  %32 = load ptr, ptr %21, align 8, !tbaa !4
  store ptr %32, ptr %26, align 8, !tbaa !4
  call void @llvm.lifetime.start.p0(i64 4, ptr %27) #7
  store i32 0, ptr %27, align 4, !tbaa !9
  call void @llvm.lifetime.start.p0(i64 4, ptr %28) #7
  call void @llvm.lifetime.start.p0(i64 8, ptr %29) #7
  %33 = load ptr, ptr %17, align 8, !tbaa !4
  %34 = call i32 @strcmp(ptr noundef %33, ptr noundef @.str.281) #8
  %35 = icmp eq i32 %34, 0
  br i1 %35, label %36, label %37

36:                                               ; preds = %10
  store ptr @.str.306, ptr %29, align 8, !tbaa !4
  br label %38

37:                                               ; preds = %10
  store ptr @.str.281, ptr %29, align 8, !tbaa !4
  br label %38

38:                                               ; preds = %37, %36
  %39 = load ptr, ptr %12, align 8, !tbaa !4
  %40 = load i32, ptr %13, align 4, !tbaa !9
  %41 = load ptr, ptr %15, align 8, !tbaa !31
  %42 = load i64, ptr %16, align 8, !tbaa !27
  %43 = trunc i64 %42 to i32
  %44 = call ptr @BIO_new_mem_buf(ptr noundef %41, i32 noundef %43)
  store ptr %44, ptr %25, align 8, !tbaa !36
  %45 = call i32 @test_ptr(ptr noundef %39, i32 noundef %40, ptr noundef @.str.307, ptr noundef %44)
  %46 = icmp ne i32 %45, 0
  br i1 %46, label %48, label %47

47:                                               ; preds = %38
  br label %152

48:                                               ; preds = %38
  store i32 0, ptr %28, align 4, !tbaa !9
  br label %49

49:                                               ; preds = %146, %48
  %50 = load i32, ptr %28, align 4, !tbaa !9
  %51 = icmp slt i32 %50, 3
  br i1 %51, label %52, label %149

52:                                               ; preds = %49
  call void @llvm.lifetime.start.p0(i64 8, ptr %30) #7
  %53 = load i32, ptr %28, align 4, !tbaa !9
  %54 = icmp eq i32 %53, 0
  br i1 %54, label %55, label %57

55:                                               ; preds = %52
  %56 = load ptr, ptr %17, align 8, !tbaa !4
  br label %65

57:                                               ; preds = %52
  %58 = load i32, ptr %28, align 4, !tbaa !9
  %59 = icmp eq i32 %58, 1
  br i1 %59, label %60, label %61

60:                                               ; preds = %57
  br label %63

61:                                               ; preds = %57
  %62 = load ptr, ptr %29, align 8, !tbaa !4
  br label %63

63:                                               ; preds = %61, %60
  %64 = phi ptr [ null, %60 ], [ %62, %61 ]
  br label %65

65:                                               ; preds = %63, %55
  %66 = phi ptr [ %56, %55 ], [ %64, %63 ]
  store ptr %66, ptr %30, align 8, !tbaa !4
  %67 = load ptr, ptr %12, align 8, !tbaa !4
  %68 = load i32, ptr %13, align 4, !tbaa !9
  %69 = load ptr, ptr %30, align 8, !tbaa !4
  %70 = load ptr, ptr %18, align 8, !tbaa !4
  %71 = load ptr, ptr %19, align 8, !tbaa !4
  %72 = load i32, ptr %20, align 4, !tbaa !9
  %73 = load ptr, ptr @testctx, align 8, !tbaa !13
  %74 = load ptr, ptr @testpropq, align 8, !tbaa !4
  %75 = call ptr @OSSL_DECODER_CTX_new_for_pkey(ptr noundef %23, ptr noundef %69, ptr noundef %70, ptr noundef %71, i32 noundef %72, ptr noundef %73, ptr noundef %74)
  store ptr %75, ptr %24, align 8, !tbaa !43
  %76 = call i32 @test_ptr(ptr noundef %67, i32 noundef %68, ptr noundef @.str.308, ptr noundef %75)
  %77 = icmp ne i32 %76, 0
  br i1 %77, label %78, label %107

78:                                               ; preds = %65
  %79 = load ptr, ptr %21, align 8, !tbaa !4
  %80 = icmp ne ptr %79, null
  br i1 %80, label %81, label %88

81:                                               ; preds = %78
  %82 = load ptr, ptr %24, align 8, !tbaa !43
  %83 = load ptr, ptr %26, align 8, !tbaa !4
  %84 = load ptr, ptr %21, align 8, !tbaa !4
  %85 = call i64 @strlen(ptr noundef %84) #8
  %86 = call i32 @OSSL_DECODER_CTX_set_passphrase(ptr noundef %82, ptr noundef %83, i64 noundef %85)
  %87 = icmp ne i32 %86, 0
  br i1 %87, label %88, label %107

88:                                               ; preds = %81, %78
  %89 = load ptr, ptr %12, align 8, !tbaa !4
  %90 = load i32, ptr %13, align 4, !tbaa !9
  %91 = load ptr, ptr %25, align 8, !tbaa !36
  %92 = call i64 @BIO_ctrl(ptr noundef %91, i32 noundef 1, i64 noundef 0, ptr noundef null)
  %93 = trunc i64 %92 to i32
  %94 = call i32 @test_int_gt(ptr noundef %89, i32 noundef %90, ptr noundef @.str.309, ptr noundef @.str.298, i32 noundef %93, i32 noundef 0)
  %95 = icmp ne i32 %94, 0
  br i1 %95, label %96, label %107

96:                                               ; preds = %88
  %97 = load ptr, ptr %12, align 8, !tbaa !4
  %98 = load i32, ptr %13, align 4, !tbaa !9
  %99 = load ptr, ptr %24, align 8, !tbaa !43
  %100 = load ptr, ptr %25, align 8, !tbaa !36
  %101 = call i32 @OSSL_DECODER_from_bio(ptr noundef %99, ptr noundef %100)
  %102 = load i32, ptr %28, align 4, !tbaa !9
  %103 = icmp eq i32 %102, 2
  %104 = select i1 %103, i32 0, i32 1
  %105 = call i32 @test_int_eq(ptr noundef %97, i32 noundef %98, ptr noundef @.str.310, ptr noundef @.str.311, i32 noundef %101, i32 noundef %104)
  %106 = icmp ne i32 %105, 0
  br i1 %106, label %108, label %107

107:                                              ; preds = %96, %88, %81, %65
  store i32 2, ptr %31, align 4
  br label %143

108:                                              ; preds = %96
  %109 = load ptr, ptr %24, align 8, !tbaa !43
  call void @OSSL_DECODER_CTX_free(ptr noundef %109)
  store ptr null, ptr %24, align 8, !tbaa !43
  %110 = load i32, ptr %28, align 4, !tbaa !9
  %111 = icmp eq i32 %110, 0
  br i1 %111, label %112, label %114

112:                                              ; preds = %108
  %113 = load ptr, ptr %23, align 8, !tbaa !23
  store ptr %113, ptr %22, align 8, !tbaa !23
  store ptr null, ptr %23, align 8, !tbaa !23
  br label %142

114:                                              ; preds = %108
  %115 = load i32, ptr %28, align 4, !tbaa !9
  %116 = icmp eq i32 %115, 1
  br i1 %116, label %117, label %141

117:                                              ; preds = %114
  %118 = load i32, ptr %20, align 4, !tbaa !9
  %119 = icmp eq i32 %118, 4
  br i1 %119, label %120, label %130

120:                                              ; preds = %117
  %121 = load ptr, ptr %12, align 8, !tbaa !4
  %122 = load i32, ptr %13, align 4, !tbaa !9
  %123 = load ptr, ptr %22, align 8, !tbaa !23
  %124 = load ptr, ptr %23, align 8, !tbaa !23
  %125 = call i32 @EVP_PKEY_parameters_eq(ptr noundef %123, ptr noundef %124)
  %126 = call i32 @test_int_eq(ptr noundef %121, i32 noundef %122, ptr noundef @.str.312, ptr noundef @.str.290, i32 noundef %125, i32 noundef 1)
  %127 = icmp ne i32 %126, 0
  br i1 %127, label %129, label %128

128:                                              ; preds = %120
  store i32 2, ptr %31, align 4
  br label %143

129:                                              ; preds = %120
  br label %140

130:                                              ; preds = %117
  %131 = load ptr, ptr %12, align 8, !tbaa !4
  %132 = load i32, ptr %13, align 4, !tbaa !9
  %133 = load ptr, ptr %22, align 8, !tbaa !23
  %134 = load ptr, ptr %23, align 8, !tbaa !23
  %135 = call i32 @EVP_PKEY_eq(ptr noundef %133, ptr noundef %134)
  %136 = call i32 @test_int_eq(ptr noundef %131, i32 noundef %132, ptr noundef @.str.313, ptr noundef @.str.290, i32 noundef %135, i32 noundef 1)
  %137 = icmp ne i32 %136, 0
  br i1 %137, label %139, label %138

138:                                              ; preds = %130
  store i32 2, ptr %31, align 4
  br label %143

139:                                              ; preds = %130
  br label %140

140:                                              ; preds = %139, %129
  br label %141

141:                                              ; preds = %140, %114
  br label %142

142:                                              ; preds = %141, %112
  store i32 0, ptr %31, align 4
  br label %143

143:                                              ; preds = %138, %128, %107, %142
  call void @llvm.lifetime.end.p0(i64 8, ptr %30) #7
  %144 = load i32, ptr %31, align 4
  switch i32 %144, label %159 [
    i32 0, label %145
    i32 2, label %152
  ]

145:                                              ; preds = %143
  br label %146

146:                                              ; preds = %145
  %147 = load i32, ptr %28, align 4, !tbaa !9
  %148 = add nsw i32 %147, 1
  store i32 %148, ptr %28, align 4, !tbaa !9
  br label %49, !llvm.loop !45

149:                                              ; preds = %49
  store i32 1, ptr %27, align 4, !tbaa !9
  %150 = load ptr, ptr %22, align 8, !tbaa !23
  %151 = load ptr, ptr %14, align 8, !tbaa !31
  store ptr %150, ptr %151, align 8, !tbaa !31
  store ptr null, ptr %22, align 8, !tbaa !23
  br label %152

152:                                              ; preds = %149, %143, %47
  %153 = load ptr, ptr %22, align 8, !tbaa !23
  call void @EVP_PKEY_free(ptr noundef %153)
  %154 = load ptr, ptr %23, align 8, !tbaa !23
  call void @EVP_PKEY_free(ptr noundef %154)
  %155 = load ptr, ptr %25, align 8, !tbaa !36
  %156 = call i32 @BIO_free(ptr noundef %155)
  %157 = load ptr, ptr %24, align 8, !tbaa !43
  call void @OSSL_DECODER_CTX_free(ptr noundef %157)
  %158 = load i32, ptr %27, align 4, !tbaa !9
  store i32 %158, ptr %11, align 4
  store i32 1, ptr %31, align 4
  br label %159

159:                                              ; preds = %152, %143
  call void @llvm.lifetime.end.p0(i64 8, ptr %29) #7
  call void @llvm.lifetime.end.p0(i64 4, ptr %28) #7
  call void @llvm.lifetime.end.p0(i64 4, ptr %27) #7
  call void @llvm.lifetime.end.p0(i64 8, ptr %26) #7
  call void @llvm.lifetime.end.p0(i64 8, ptr %25) #7
  call void @llvm.lifetime.end.p0(i64 8, ptr %24) #7
  call void @llvm.lifetime.end.p0(i64 8, ptr %23) #7
  call void @llvm.lifetime.end.p0(i64 8, ptr %22) #7
  %160 = load i32, ptr %11, align 4
  ret i32 %160
}