; Function Attrs: nounwind uwtable
define internal fastcc range(i32 0, 2) i32 @decode_EVP_PKEY_prov(ptr noundef %0, i32 noundef %1, ptr noundef writeonly captures(none) %2, ptr noundef %3, i64 noundef %4, ptr noundef %5, ptr noundef %6, ptr noundef %7, i32 noundef %8, ptr noundef %9) unnamed_addr #1 {
  %11 = alloca ptr, align 8
  call void @llvm.lifetime.start.p0(i64 8, ptr nonnull %11) #8
  store ptr null, ptr %11, align 8, !tbaa !21
  %12 = tail call i32 @strcmp(ptr noundef nonnull dereferenceable(1) %5, ptr noundef nonnull dereferenceable(4) @.str.281) #9
  %13 = icmp eq i32 %12, 0
  %.str.306..str.281 = select i1 %13, ptr @.str.306, ptr @.str.281
  %14 = trunc i64 %4 to i32
  %15 = tail call ptr @BIO_new_mem_buf(ptr noundef %3, i32 noundef %14) #8
  %16 = tail call i32 @test_ptr(ptr noundef %0, i32 noundef %1, ptr noundef nonnull @.str.307, ptr noundef %15) #8
  %.not = icmp eq i32 %16, 0
  br i1 %.not, label %.thread, label %.preheader

.preheader:                                       ; preds = %10
  %.not57 = icmp eq ptr %9, null
  %17 = icmp eq i32 %8, 4
  br label %18

18:                                               ; preds = %.preheader, %51
  %.04970 = phi i32 [ 0, %.preheader ], [ %52, %51 ]
  %.169 = phi ptr [ null, %.preheader ], [ %.3, %51 ]
  %19 = icmp eq i32 %.04970, 0
  %20 = icmp eq i32 %.04970, 1
  %21 = select i1 %20, ptr null, ptr %.str.306..str.281
  %22 = select i1 %19, ptr %5, ptr %21
  %23 = load ptr, ptr @testctx, align 8, !tbaa !10
  %24 = call ptr @OSSL_DECODER_CTX_new_for_pkey(ptr noundef nonnull %11, ptr noundef %22, ptr noundef %6, ptr noundef %7, i32 noundef %8, ptr noundef %23, ptr noundef null) #8
  %25 = call i32 @test_ptr(ptr noundef %0, i32 noundef %1, ptr noundef nonnull @.str.308, ptr noundef %24) #8
  %.not56 = icmp eq i32 %25, 0
  br i1 %.not56, label %.thread, label %26

26:                                               ; preds = %18
  br i1 %.not57, label %30, label %27

27:                                               ; preds = %26
  %28 = call i64 @strlen(ptr noundef nonnull dereferenceable(1) %9) #9
  %29 = call i32 @OSSL_DECODER_CTX_set_passphrase(ptr noundef %24, ptr noundef nonnull %9, i64 noundef %28) #8
  %.not58 = icmp eq i32 %29, 0
  br i1 %.not58, label %.thread, label %30

30:                                               ; preds = %27, %26
  %31 = call i64 @BIO_ctrl(ptr noundef %15, i32 noundef 1, i64 noundef 0, ptr noundef null) #8
  %32 = trunc i64 %31 to i32
  %33 = call i32 @test_int_gt(ptr noundef %0, i32 noundef %1, ptr noundef nonnull @.str.309, ptr noundef nonnull @.str.298, i32 noundef %32, i32 noundef 0) #8
  %.not59 = icmp eq i32 %33, 0
  br i1 %.not59, label %.thread, label %34

34:                                               ; preds = %30
  %35 = call i32 @OSSL_DECODER_from_bio(ptr noundef %24, ptr noundef %15) #8
  %36 = icmp ne i32 %.04970, 2
  %37 = zext i1 %36 to i32
  %38 = call i32 @test_int_eq(ptr noundef %0, i32 noundef %1, ptr noundef nonnull @.str.310, ptr noundef nonnull @.str.311, i32 noundef %35, i32 noundef %37) #8
  %.not60 = icmp eq i32 %38, 0
  br i1 %.not60, label %.thread, label %39

39:                                               ; preds = %34
  call void @OSSL_DECODER_CTX_free(ptr noundef %24) #8
  br i1 %19, label %40, label %42

40:                                               ; preds = %39
  %41 = load ptr, ptr %11, align 8, !tbaa !21
  store ptr null, ptr %11, align 8, !tbaa !21
  br label %51

42:                                               ; preds = %39
  br i1 %20, label %43, label %51

43:                                               ; preds = %42
  %44 = load ptr, ptr %11, align 8, !tbaa !21
  br i1 %17, label %45, label %48

45:                                               ; preds = %43
  %46 = call i32 @EVP_PKEY_parameters_eq(ptr noundef %.169, ptr noundef %44) #8
  %47 = call i32 @test_int_eq(ptr noundef %0, i32 noundef %1, ptr noundef nonnull @.str.312, ptr noundef nonnull @.str.290, i32 noundef %46, i32 noundef 1) #8
  %.not62 = icmp eq i32 %47, 0
  br i1 %.not62, label %.thread, label %51

48:                                               ; preds = %43
  %49 = call i32 @EVP_PKEY_eq(ptr noundef %.169, ptr noundef %44) #8
  %50 = call i32 @test_int_eq(ptr noundef %0, i32 noundef %1, ptr noundef nonnull @.str.313, ptr noundef nonnull @.str.290, i32 noundef %49, i32 noundef 1) #8
  %.not61 = icmp eq i32 %50, 0
  br i1 %.not61, label %.thread, label %51

51:                                               ; preds = %42, %48, %45, %40
  %.3 = phi ptr [ %41, %40 ], [ %.169, %45 ], [ %.169, %48 ], [ %.169, %42 ]
  %52 = add nuw nsw i32 %.04970, 1
  %exitcond.not = icmp eq i32 %52, 3
  br i1 %exitcond.not, label %53, label %18, !llvm.loop !35

53:                                               ; preds = %51
  store ptr %.3, ptr %2, align 8, !tbaa !23
  br label %.thread

.thread:                                          ; preds = %48, %45, %18, %27, %30, %34, %10, %53
  %.052 = phi ptr [ null, %53 ], [ null, %10 ], [ %24, %34 ], [ %24, %30 ], [ %24, %27 ], [ %24, %18 ], [ null, %45 ], [ null, %48 ]
  %.051 = phi ptr [ null, %53 ], [ null, %10 ], [ %.169, %34 ], [ %.169, %30 ], [ %.169, %27 ], [ %.169, %18 ], [ %.169, %45 ], [ %.169, %48 ]
  %.050 = phi i32 [ 1, %53 ], [ 0, %10 ], [ 0, %34 ], [ 0, %30 ], [ 0, %27 ], [ 0, %18 ], [ 0, %45 ], [ 0, %48 ]
  call void @EVP_PKEY_free(ptr noundef %.051) #8
  %54 = load ptr, ptr %11, align 8, !tbaa !21
  call void @EVP_PKEY_free(ptr noundef %54) #8
  %55 = call i32 @BIO_free(ptr noundef %15) #8
  call void @OSSL_DECODER_CTX_free(ptr noundef %.052) #8
  call void @llvm.lifetime.end.p0(i64 8, ptr nonnull %11) #8
  ret i32 %.050
}